; Function Attrs: null_pointer_is_valid sspstrong uwtable
define internal noundef zeroext i1 @dissect_brsf_parameter(ptr noundef %0, ptr noundef %1, ptr noundef %2, i32 noundef %3, i32 noundef %4, i16 noundef zeroext %5, ptr noundef readonly captures(none) %6, i32 noundef %7, i32 noundef %8, ptr readnone captures(none) %9) #0 {
  %11 = icmp eq i32 %4, 2
  %12 = icmp eq i16 %5, 61
  %or.cond = and i1 %11, %12
  br i1 %or.cond, label %16, label %13

13:                                               ; preds = %10
  %14 = icmp eq i32 %4, 1
  %15 = icmp eq i16 %5, 58
  %or.cond5 = and i1 %14, %15
  %.not = icmp eq i32 %7, 0
  %or.cond29 = and i1 %or.cond5, %.not
  br i1 %or.cond29, label %17, label %41

16:                                               ; preds = %10
  %.not.old = icmp eq i32 %7, 0
  br i1 %.not.old, label %17, label %41

17:                                               ; preds = %13, %16
  %18 = tail call ptr @wmem_packet_scope()
  %19 = add i32 %8, 1
  %20 = sext i32 %19 to i64
  %21 = tail call noalias ptr @wmem_alloc(ptr noundef %18, i64 noundef %20) #11
  %22 = sext i32 %8 to i64
  %23 = icmp ne i32 %19, -1
  tail call void @llvm.assume(i1 %23)
  %24 = tail call ptr @__memcpy_chk(ptr noundef %21, ptr noundef readonly %6, i64 noundef range(i64 -2147483648, 4294967296) %22, i64 noundef %20) #10, !alias.scope !93
  %25 = getelementptr i8, ptr %21, i64 %22
  store i8 0, ptr %25, align 1
  %26 = tail call i64 @g_ascii_strtoull(ptr noundef %21, ptr noundef null, i32 noundef 10)
  %27 = trunc i64 %26 to i32
  %28 = and i64 %26, 4294967295
  br i1 %11, label %29, label %35

29:                                               ; preds = %17
  %30 = load i32, ptr @hf_brsf_hs, align 4
  %31 = load i32, ptr @ett_bthfp_brsf_hf, align 4
  %32 = tail call ptr @proto_tree_add_bitmask_value_with_flags(ptr noundef %2, ptr noundef %0, i32 noundef %3, i32 noundef %30, i32 noundef %31, ptr noundef nonnull @dissect_brsf_parameter.hs, i64 noundef %28, i32 noundef 1)
  %.not28 = icmp ult i32 %27, 1024
  br i1 %.not28, label %41, label %33

33:                                               ; preds = %29
  %34 = tail call ptr @expert_add_info(ptr noundef %1, ptr noundef %32, ptr noundef nonnull @ei_brfs_hs_reserved_bits)
  br label %41

35:                                               ; preds = %17
  %36 = load i32, ptr @hf_brsf_ag, align 4
  %37 = load i32, ptr @ett_bthfp_brsf_ag, align 4
  %38 = tail call ptr @proto_tree_add_bitmask_value_with_flags(ptr noundef %2, ptr noundef %0, i32 noundef %3, i32 noundef %36, i32 noundef %37, ptr noundef nonnull @dissect_brsf_parameter.ag, i64 noundef %28, i32 noundef 1)
  %.not27 = icmp ult i32 %27, 4096
  br i1 %.not27, label %41, label %39

39:                                               ; preds = %35
  %40 = tail call ptr @expert_add_info(ptr noundef %1, ptr noundef %38, ptr noundef nonnull @ei_brfs_ag_reserved_bits)
  br label %41

41:                                               ; preds = %33, %29, %39, %35, %16, %13
  %.0 = phi i1 [ false, %13 ], [ false, %16 ], [ true, %35 ], [ true, %39 ], [ true, %29 ], [ true, %33 ]
  ret i1 %.0
}